target datalayout = "e-m:e-p270:32:32-p271:32:32-p272:64:64-i64:64-i128:128-f80:128-n8:16:32:64-S128"
target triple = "x86_64-pc-linux-gnu"

%struct.expert_field = type { i32, i32 }

@ei_pn_io_block_version = internal global %struct.expert_field zeroinitializer, align 4
@.str.1317 = private unnamed_addr constant [41 x i8] c"Block version %u.%u not implemented yet!\00", align 1

; Function Attrs: nounwind uwtable
define hidden i32 @dissect_blocks(ptr noundef %0, i32 noundef %1, ptr noundef %2, ptr noundef %3, ptr noundef %4) #0 {
  %6 = alloca ptr, align 8
  %7 = alloca i32, align 4
  %8 = alloca ptr, align 8
  %9 = alloca ptr, align 8
  %10 = alloca ptr, align 8
  %11 = alloca i16, align 2
  %12 = alloca i32, align 4
  %13 = alloca ptr, align 8
  store ptr %0, ptr %6, align 8
  store i32 %1, ptr %7, align 4
  store ptr %2, ptr %8, align 8
  store ptr %3, ptr %9, align 8
  store ptr %4, ptr %10, align 8
  store i16 0, ptr %11, align 2
  store ptr null, ptr %13, align 8
  br label %14

14:                                               ; preds = %19, %5
  %15 = load ptr, ptr %6, align 8
  %16 = call i32 @tvb_captured_length(ptr noundef %15)
  %17 = load i32, ptr %7, align 4
  %18 = icmp ugt i32 %16, %17
  br i1 %18, label %19, label %28

19:                                               ; preds = %14
  %20 = load ptr, ptr %6, align 8
  %21 = load i32, ptr %7, align 4
  %22 = load ptr, ptr %8, align 8
  %23 = load ptr, ptr %9, align 8
  %24 = load ptr, ptr %10, align 8
  %25 = call i32 @dissect_block(ptr noundef %20, i32 noundef %21, ptr noundef %22, ptr noundef %23, ptr noundef %24, ptr noundef %11, ptr noundef %12, ptr noundef %13)
  store i32 %25, ptr %7, align 4
  %26 = load i16, ptr %11, align 2
  %27 = add i16 %26, 1
  store i16 %27, ptr %11, align 2
  br label %14, !llvm.loop !4

28:                                               ; preds = %14
  %29 = load ptr, ptr %13, align 8
  %30 = icmp ne ptr %29, null
  br i1 %30, label %31, label %36

31:                                               ; preds = %28
  %32 = load ptr, ptr %6, align 8
  %33 = load ptr, ptr %8, align 8
  %34 = load ptr, ptr %9, align 8
  %35 = load ptr, ptr %13, align 8
  call void @pnio_ar_info(ptr noundef %32, ptr noundef %33, ptr noundef %34, ptr noundef %35)
  br label %36

36:                                               ; preds = %31, %28
  %37 = load i32, ptr %7, align 4
  ret i32 %37
}

; Function Attrs: nounwind uwtable
define internal i32 @dissect_PDevData_block(ptr noundef %0, i32 noundef %1, ptr noundef %2, ptr noundef %3, ptr noundef %4, ptr noundef %5, i8 noundef zeroext %6, i8 noundef zeroext %7) #0 {
  %9 = alloca i32, align 4
  %10 = alloca ptr, align 8
  %11 = alloca i32, align 4
  %12 = alloca ptr, align 8
  %13 = alloca ptr, align 8
  %14 = alloca ptr, align 8
  %15 = alloca ptr, align 8
  %16 = alloca i8, align 1
  %17 = alloca i8, align 1
  store ptr %0, ptr %10, align 8
  store i32 %1, ptr %11, align 4
  store ptr %2, ptr %12, align 8
  store ptr %3, ptr %13, align 8
  store ptr %4, ptr %14, align 8
  store ptr %5, ptr %15, align 8
  store i8 %6, ptr %16, align 1
  store i8 %7, ptr %17, align 1
  %18 = load i8, ptr %16, align 1
  %19 = zext i8 %18 to i32
  %20 = icmp ne i32 %19, 1
  br i1 %20, label %25, label %21

21:                                               ; preds = %8
  %22 = load i8, ptr %17, align 1
  %23 = zext i8 %22 to i32
  %24 = icmp ne i32 %23, 0
  br i1 %24, label %25, label %34

25:                                               ; preds = %21, %8
  %26 = load ptr, ptr %12, align 8
  %27 = load ptr, ptr %14, align 8
  %28 = load i8, ptr %16, align 1
  %29 = zext i8 %28 to i32
  %30 = load i8, ptr %17, align 1
  %31 = zext i8 %30 to i32
  %32 = call ptr (ptr, ptr, ptr, ptr, ...) @expert_add_info_format(ptr noundef %26, ptr noundef %27, ptr noundef @ei_pn_io_block_version, ptr noundef @.str.1317, i32 noundef %29, i32 noundef %31)
  %33 = load i32, ptr %11, align 4
  store i32 %33, ptr %9, align 4
  br label %47

34:                                               ; preds = %21
  %35 = load ptr, ptr %10, align 8
  %36 = load i32, ptr %11, align 4
  %37 = load ptr, ptr %12, align 8
  %38 = load ptr, ptr %13, align 8
  %39 = call i32 @dissect_pn_align4(ptr noundef %35, i32 noundef %36, ptr noundef %37, ptr noundef %38)
  store i32 %39, ptr %11, align 4
  %40 = load ptr, ptr %10, align 8
  %41 = load i32, ptr %11, align 4
  %42 = load ptr, ptr %12, align 8
  %43 = load ptr, ptr %13, align 8
  %44 = load ptr, ptr %15, align 8
  %45 = call i32 @dissect_blocks(ptr noundef %40, i32 noundef %41, ptr noundef %42, ptr noundef %43, ptr noundef %44)
  store i32 %45, ptr %11, align 4
  %46 = load i32, ptr %11, align 4
  store i32 %46, ptr %9, align 4
  br label %47

47:                                               ; preds = %34, %25
  %48 = load i32, ptr %9, align 4
  ret i32 %48
}