; Function Attrs: nounwind uwtable
define internal fastcc void @dissect_PDevData_block(ptr noundef %0, i32 noundef %1, ptr noundef %2, ptr noundef %3, ptr noundef %4, ptr noundef %5, i8 noundef zeroext %6, i8 noundef zeroext %7) unnamed_addr #0 {
  %9 = alloca i16, align 2
  %10 = alloca i32, align 4
  %11 = alloca ptr, align 8
  %12 = icmp ne i8 %6, 1
  %13 = icmp ne i8 %7, 0
  %or.cond = or i1 %12, %13
  br i1 %or.cond, label %14, label %18

14:                                               ; preds = %8
  %15 = zext i8 %7 to i32
  %16 = zext i8 %6 to i32
  %17 = tail call ptr (ptr, ptr, ptr, ptr, ...) @expert_add_info_format(ptr noundef %2, ptr noundef %4, ptr noundef nonnull @ei_pn_io_block_version, ptr noundef nonnull @.str.1317, i32 noundef %16, i32 noundef %15) #11
  br label %28

18:                                               ; preds = %8
  %19 = tail call i32 @dissect_pn_align4(ptr noundef %0, i32 noundef %1, ptr noundef %2, ptr noundef %3) #11
  call void @llvm.lifetime.start.p0(i64 2, ptr nonnull %9)
  call void @llvm.lifetime.start.p0(i64 4, ptr nonnull %10)
  call void @llvm.lifetime.start.p0(i64 8, ptr nonnull %11)
  store i16 0, ptr %9, align 2
  store ptr null, ptr %11, align 8
  %20 = tail call i32 @tvb_captured_length(ptr noundef %0) #11
  %21 = icmp ugt i32 %20, %19
  br i1 %21, label %.lr.ph, label %dissect_blocks.exit

.lr.ph:                                           ; preds = %18, %.lr.ph
  %.0.i19 = phi i32 [ %22, %.lr.ph ], [ %19, %18 ]
  %22 = call fastcc i32 @dissect_block(ptr noundef %0, i32 noundef %.0.i19, ptr noundef %2, ptr noundef %3, ptr noundef %5, ptr noundef %9, ptr noundef %10, ptr noundef %11)
  %23 = load i16, ptr %9, align 2
  %24 = add i16 %23, 1
  store i16 %24, ptr %9, align 2
  %25 = call i32 @tvb_captured_length(ptr noundef %0) #11
  %26 = icmp ugt i32 %25, %22
  br i1 %26, label %.lr.ph, label %._crit_edge, !llvm.loop !4

._crit_edge:                                      ; preds = %.lr.ph
  %.pre = load ptr, ptr %11, align 8
  %.not.i = icmp eq ptr %.pre, null
  br i1 %.not.i, label %dissect_blocks.exit, label %27

27:                                               ; preds = %._crit_edge
  call fastcc void @pnio_ar_info(ptr noundef %0, ptr noundef %2, ptr noundef %3, ptr noundef %.pre)
  br label %dissect_blocks.exit

dissect_blocks.exit:                              ; preds = %18, %._crit_edge, %27
  call void @llvm.lifetime.end.p0(i64 2, ptr nonnull %9)
  call void @llvm.lifetime.end.p0(i64 4, ptr nonnull %10)
  call void @llvm.lifetime.end.p0(i64 8, ptr nonnull %11)
  br label %28

28:                                               ; preds = %dissect_blocks.exit, %14
  ret void
}